target datalayout = "e-m:e-p270:32:32-p271:32:32-p272:64:64-i64:64-i128:128-f80:128-n8:16:32:64-S128"
target triple = "x86_64-pc-linux-gnu"

@.str.3 = private unnamed_addr constant [4 x i8] c"\\/@\00", align 1

; Function Attrs: nounwind uwtable
define hidden zeroext i1 @Curl_auth_user_contains_domain(ptr noundef %0) #0 {
  %2 = alloca ptr, align 8
  %3 = alloca i8, align 1
  %4 = alloca ptr, align 8
  store ptr %0, ptr %2, align 8, !tbaa !3
  call void @llvm.lifetime.start.p0(i64 1, ptr %3) #4
  store i8 0, ptr %3, align 1, !tbaa !8
  %5 = load ptr, ptr %2, align 8, !tbaa !3
  %6 = icmp ne ptr %5, null
  br i1 %6, label %7, label %32

7:                                                ; preds = %1
  %8 = load ptr, ptr %2, align 8, !tbaa !3
  %9 = load i8, ptr %8, align 1, !tbaa !10
  %10 = sext i8 %9 to i32
  %11 = icmp ne i32 %10, 0
  br i1 %11, label %12, label %32

12:                                               ; preds = %7
  call void @llvm.lifetime.start.p0(i64 8, ptr %4) #4
  %13 = load ptr, ptr %2, align 8, !tbaa !3
  %14 = call ptr @strpbrk(ptr noundef %13, ptr noundef @.str.3) #5
  store ptr %14, ptr %4, align 8, !tbaa !3
  %15 = load ptr, ptr %4, align 8, !tbaa !3
  %16 = icmp ne ptr %15, null
  br i1 %16, label %17, label %29

17:                                               ; preds = %12
  %18 = load ptr, ptr %4, align 8, !tbaa !3
  %19 = load ptr, ptr %2, align 8, !tbaa !3
  %20 = icmp ugt ptr %18, %19
  br i1 %20, label %21, label %29

21:                                               ; preds = %17
  %22 = load ptr, ptr %4, align 8, !tbaa !3
  %23 = load ptr, ptr %2, align 8, !tbaa !3
  %24 = load ptr, ptr %2, align 8, !tbaa !3
  %25 = call i64 @strlen(ptr noundef %24) #5
  %26 = getelementptr inbounds nuw i8, ptr %23, i64 %25
  %27 = getelementptr inbounds i8, ptr %26, i64 -1
  %28 = icmp ult ptr %22, %27
  br label %29

29:                                               ; preds = %21, %17, %12
  %30 = phi i1 [ false, %17 ], [ false, %12 ], [ %28, %21 ]
  %31 = zext i1 %30 to i8
  store i8 %31, ptr %3, align 1, !tbaa !8
  call void @llvm.lifetime.end.p0(i64 8, ptr %4) #4
  br label %32

32:                                               ; preds = %29, %7, %1
  %33 = load i8, ptr %3, align 1, !tbaa !8, !range !11, !noundef !12
  %34 = trunc i8 %33 to i1
  call void @llvm.lifetime.end.p0(i64 1, ptr %3) #4
  ret i1 %34
}