; Function Attrs: mustprogress nofree nounwind willreturn memory(argmem: read) uwtable
define hidden zeroext i1 @Curl_auth_user_contains_domain(ptr noundef readonly %0) local_unnamed_addr #2 {
  %.not = icmp eq ptr %0, null
  br i1 %.not, label %12, label %2

2:                                                ; preds = %1
  %3 = load i8, ptr %0, align 1, !tbaa !3
  %.not11 = icmp eq i8 %3, 0
  br i1 %.not11, label %12, label %4

4:                                                ; preds = %2
  %5 = tail call ptr @strpbrk(ptr noundef nonnull %0, ptr noundef nonnull @.str.3) #5
  %6 = icmp ugt ptr %5, %0
  br i1 %6, label %7, label %12

7:                                                ; preds = %4
  %8 = tail call i64 @strlen(ptr noundef nonnull dereferenceable(1) %0) #5
  %9 = getelementptr inbounds nuw i8, ptr %0, i64 %8
  %10 = getelementptr inbounds i8, ptr %9, i64 -1
  %11 = icmp ult ptr %5, %10
  br label %12

12:                                               ; preds = %4, %7, %2, %1
  %.0 = phi i1 [ false, %2 ], [ false, %1 ], [ false, %4 ], [ %11, %7 ]
  ret i1 %.0
}